target datalayout = "e-m:e-p270:32:32-p271:32:32-p272:64:64-i64:64-i128:128-f80:128-n8:16:32:64-S128"
target triple = "x86_64-pc-linux-gnu"

%struct.gguf_init_params = type { i8, ptr }

@stderr = external global ptr, align 8
@.str.51 = private unnamed_addr constant [3 x i8] c"rb\00", align 1
@.str.52 = private unnamed_addr constant [35 x i8] c"%s: failed to open GGUF file '%s'\0A\00", align 1
@__func__.gguf_init_from_file = private unnamed_addr constant [20 x i8] c"gguf_init_from_file\00", align 1

; Function Attrs: mustprogress uwtable
define ptr @gguf_init_from_file(ptr noundef %0, i8 %1, ptr %2) #4 {
  %4 = alloca ptr, align 8
  %5 = alloca %struct.gguf_init_params, align 8
  %6 = alloca ptr, align 8
  %7 = alloca ptr, align 8
  %8 = alloca i32, align 4
  %9 = alloca ptr, align 8
  %10 = alloca %struct.gguf_init_params, align 8
  %11 = getelementptr inbounds nuw { i8, ptr }, ptr %5, i32 0, i32 0
  store i8 %1, ptr %11, align 8
  %12 = getelementptr inbounds nuw { i8, ptr }, ptr %5, i32 0, i32 1
  store ptr %2, ptr %12, align 8
  store ptr %0, ptr %6, align 8, !tbaa !122
  call void @llvm.lifetime.start.p0(i64 8, ptr %7) #5
  %13 = load ptr, ptr %6, align 8, !tbaa !122
  %14 = call ptr @ggml_fopen(ptr noundef %13, ptr noundef @.str.51)
  store ptr %14, ptr %7, align 8, !tbaa !60
  %15 = load ptr, ptr %7, align 8, !tbaa !60
  %16 = icmp ne ptr %15, null
  br i1 %16, label %21, label %17

17:                                               ; preds = %3
  %18 = load ptr, ptr @stderr, align 8, !tbaa !60
  %19 = load ptr, ptr %6, align 8, !tbaa !122
  %20 = call i32 (ptr, ptr, ...) @fprintf(ptr noundef %18, ptr noundef @.str.52, ptr noundef @__func__.gguf_init_from_file, ptr noundef %19) #5
  store ptr null, ptr %4, align 8
  store i32 1, ptr %8, align 4
  br label %31

21:                                               ; preds = %3
  call void @llvm.lifetime.start.p0(i64 8, ptr %9) #5
  %22 = load ptr, ptr %7, align 8, !tbaa !60
  call void @llvm.memcpy.p0.p0.i64(ptr align 8 %10, ptr align 8 %5, i64 16, i1 false), !tbaa.struct !133
  %23 = getelementptr inbounds nuw { i8, ptr }, ptr %10, i32 0, i32 0
  %24 = load i8, ptr %23, align 8
  %25 = getelementptr inbounds nuw { i8, ptr }, ptr %10, i32 0, i32 1
  %26 = load ptr, ptr %25, align 8
  %27 = call noundef ptr @_Z24gguf_init_from_file_implP8_IO_FILE16gguf_init_params(ptr noundef %22, i8 %24, ptr %26)
  store ptr %27, ptr %9, align 8, !tbaa !41
  %28 = load ptr, ptr %7, align 8, !tbaa !60
  %29 = call i32 @fclose(ptr noundef %28)
  %30 = load ptr, ptr %9, align 8, !tbaa !41
  store ptr %30, ptr %4, align 8
  store i32 1, ptr %8, align 4
  call void @llvm.lifetime.end.p0(i64 8, ptr %9) #5
  br label %31

31:                                               ; preds = %21, %17
  call void @llvm.lifetime.end.p0(i64 8, ptr %7) #5
  %32 = load ptr, ptr %4, align 8
  ret ptr %32
}