; Function Attrs: mustprogress uwtable
define noundef ptr @gguf_init_from_file(ptr noundef %0, i8 %1, ptr %2) local_unnamed_addr #2 {
  %4 = tail call ptr @ggml_fopen(ptr noundef %0, ptr noundef nonnull @.str.51)
  %.not = icmp eq ptr %4, null
  br i1 %.not, label %5, label %8

5:                                                ; preds = %3
  %6 = load ptr, ptr @stderr, align 8, !tbaa !45
  %7 = tail call i32 (ptr, ptr, ...) @fprintf(ptr noundef %6, ptr noundef nonnull @.str.52, ptr noundef nonnull @__func__.gguf_init_from_file, ptr noundef %0) #31
  br label %11

8:                                                ; preds = %3
  %9 = tail call noundef ptr @_Z24gguf_init_from_file_implP8_IO_FILE16gguf_init_params(ptr noundef nonnull %4, i8 %1, ptr %2)
  %10 = tail call i32 @fclose(ptr noundef nonnull %4)
  br label %11

11:                                               ; preds = %8, %5
  %.0 = phi ptr [ %9, %8 ], [ null, %5 ]
  ret ptr %.0
}